target datalayout = "e-m:e-p270:32:32-p271:32:32-p272:64:64-i64:64-i128:128-f80:128-n8:16:32:64-S128"
target triple = "x86_64-pc-linux-gnu"

%struct.X509_algor_st = type { ptr, ptr }
%struct.ocsp_basic_response_st = type { %struct.ocsp_response_data_st, %struct.X509_algor_st, ptr, ptr }
%struct.ocsp_response_data_st = type { ptr, %struct.ocsp_responder_id_st, ptr, ptr, ptr }
%struct.ocsp_responder_id_st = type { i32, %union.anon }
%union.anon = type { ptr }
%struct.ocsp_single_response_st = type { ptr, ptr, ptr, ptr, ptr }
%struct.ocsp_cert_status_st = type { i32, %union.anon.0 }
%union.anon.0 = type { ptr }
%struct.ocsp_revoked_info_st = type { ptr, ptr }

@.str = private unnamed_addr constant [34 x i8] c"../openssl/crypto/ocsp/ocsp_srv.c\00", align 1
@__func__.OCSP_basic_add1_status = private unnamed_addr constant [23 x i8] c"OCSP_basic_add1_status\00", align 1

; Function Attrs: inlinehint nounwind uwtable
define internal ptr @ossl_check_OCSP_SINGLERESP_type(ptr noundef %0) #2 {
  %2 = alloca ptr, align 8
  store ptr %0, ptr %2, align 8, !tbaa !50
  %3 = load ptr, ptr %2, align 8, !tbaa !50
  ret ptr %3
}

; Function Attrs: inlinehint nounwind uwtable
define internal ptr @ossl_check_OCSP_SINGLERESP_sk_type(ptr noundef %0) #2 {
  %2 = alloca ptr, align 8
  store ptr %0, ptr %2, align 8, !tbaa !70
  %3 = load ptr, ptr %2, align 8, !tbaa !70
  ret ptr %3
}

; Function Attrs: nounwind uwtable
define ptr @OCSP_basic_add1_status(ptr noundef %0, ptr noundef %1, i32 noundef %2, i32 noundef %3, ptr noundef %4, ptr noundef %5, ptr noundef %6) #0 {
  %8 = alloca ptr, align 8
  %9 = alloca ptr, align 8
  %10 = alloca ptr, align 8
  %11 = alloca i32, align 4
  %12 = alloca i32, align 4
  %13 = alloca ptr, align 8
  %14 = alloca ptr, align 8
  %15 = alloca ptr, align 8
  %16 = alloca ptr, align 8
  %17 = alloca ptr, align 8
  %18 = alloca ptr, align 8
  %19 = alloca i32, align 4
  store ptr %0, ptr %9, align 8, !tbaa !40
  store ptr %1, ptr %10, align 8, !tbaa !28
  store i32 %2, ptr %11, align 4, !tbaa !17
  store i32 %3, ptr %12, align 4, !tbaa !17
  store ptr %4, ptr %13, align 8, !tbaa !38
  store ptr %5, ptr %14, align 8, !tbaa !38
  store ptr %6, ptr %15, align 8, !tbaa !38
  call void @llvm.lifetime.start.p0(i64 8, ptr %16) #5
  store ptr null, ptr %16, align 8, !tbaa !50
  call void @llvm.lifetime.start.p0(i64 8, ptr %17) #5
  call void @llvm.lifetime.start.p0(i64 8, ptr %18) #5
  %20 = load ptr, ptr %9, align 8, !tbaa !40
  %21 = getelementptr inbounds nuw %struct.ocsp_basic_response_st, ptr %20, i32 0, i32 0
  %22 = getelementptr inbounds nuw %struct.ocsp_response_data_st, ptr %21, i32 0, i32 3
  %23 = load ptr, ptr %22, align 8, !tbaa !52
  %24 = icmp eq ptr %23, null
  br i1 %24, label %25, label %32

25:                                               ; preds = %7
  %26 = call ptr @OPENSSL_sk_new_null()
  %27 = load ptr, ptr %9, align 8, !tbaa !40
  %28 = getelementptr inbounds nuw %struct.ocsp_basic_response_st, ptr %27, i32 0, i32 0
  %29 = getelementptr inbounds nuw %struct.ocsp_response_data_st, ptr %28, i32 0, i32 3
  store ptr %26, ptr %29, align 8, !tbaa !52
  %30 = icmp eq ptr %26, null
  br i1 %30, label %31, label %32

31:                                               ; preds = %25
  br label %135

32:                                               ; preds = %25, %7
  %33 = call ptr @OCSP_SINGLERESP_new()
  store ptr %33, ptr %16, align 8, !tbaa !50
  %34 = icmp eq ptr %33, null
  br i1 %34, label %35, label %36

35:                                               ; preds = %32
  br label %135

36:                                               ; preds = %32
  %37 = load ptr, ptr %14, align 8, !tbaa !38
  %38 = load ptr, ptr %16, align 8, !tbaa !50
  %39 = getelementptr inbounds nuw %struct.ocsp_single_response_st, ptr %38, i32 0, i32 2
  %40 = call ptr @ASN1_TIME_to_generalizedtime(ptr noundef %37, ptr noundef %39)
  %41 = icmp ne ptr %40, null
  br i1 %41, label %43, label %42

42:                                               ; preds = %36
  br label %135

43:                                               ; preds = %36
  %44 = load ptr, ptr %15, align 8, !tbaa !38
  %45 = icmp ne ptr %44, null
  br i1 %45, label %46, label %53

46:                                               ; preds = %43
  %47 = load ptr, ptr %15, align 8, !tbaa !38
  %48 = load ptr, ptr %16, align 8, !tbaa !50
  %49 = getelementptr inbounds nuw %struct.ocsp_single_response_st, ptr %48, i32 0, i32 3
  %50 = call ptr @ASN1_TIME_to_generalizedtime(ptr noundef %47, ptr noundef %49)
  %51 = icmp ne ptr %50, null
  br i1 %51, label %53, label %52

52:                                               ; preds = %46
  br label %135

53:                                               ; preds = %46, %43
  %54 = load ptr, ptr %16, align 8, !tbaa !50
  %55 = getelementptr inbounds nuw %struct.ocsp_single_response_st, ptr %54, i32 0, i32 0
  %56 = load ptr, ptr %55, align 8, !tbaa !58
  call void @OCSP_CERTID_free(ptr noundef %56)
  %57 = load ptr, ptr %10, align 8, !tbaa !28
  %58 = call ptr @OCSP_CERTID_dup(ptr noundef %57)
  %59 = load ptr, ptr %16, align 8, !tbaa !50
  %60 = getelementptr inbounds nuw %struct.ocsp_single_response_st, ptr %59, i32 0, i32 0
  store ptr %58, ptr %60, align 8, !tbaa !58
  %61 = icmp eq ptr %58, null
  br i1 %61, label %62, label %63

62:                                               ; preds = %53
  br label %135

63:                                               ; preds = %53
  %64 = load ptr, ptr %16, align 8, !tbaa !50
  %65 = getelementptr inbounds nuw %struct.ocsp_single_response_st, ptr %64, i32 0, i32 1
  %66 = load ptr, ptr %65, align 8, !tbaa !61
  store ptr %66, ptr %17, align 8, !tbaa !62
  %67 = load i32, ptr %11, align 4, !tbaa !17
  %68 = load ptr, ptr %17, align 8, !tbaa !62
  %69 = getelementptr inbounds nuw %struct.ocsp_cert_status_st, ptr %68, i32 0, i32 0
  store i32 %67, ptr %69, align 8, !tbaa !63
  switch i32 %67, label %121 [
    i32 1, label %70
    i32 0, label %107
    i32 2, label %114
  ]

70:                                               ; preds = %63
  %71 = load ptr, ptr %13, align 8, !tbaa !38
  %72 = icmp ne ptr %71, null
  br i1 %72, label %74, label %73

73:                                               ; preds = %70
  call void @ERR_new()
  call void @ERR_set_debug(ptr noundef @.str, i32 noundef 119, ptr noundef @__func__.OCSP_basic_add1_status)
  call void (i32, i32, ptr, ...) @ERR_set_error(i32 noundef 39, i32 noundef 109, ptr noundef null)
  br label %135

74:                                               ; preds = %70
  %75 = call ptr @OCSP_REVOKEDINFO_new()
  store ptr %75, ptr %18, align 8, !tbaa !65
  %76 = load ptr, ptr %17, align 8, !tbaa !62
  %77 = getelementptr inbounds nuw %struct.ocsp_cert_status_st, ptr %76, i32 0, i32 1
  store ptr %75, ptr %77, align 8, !tbaa !67
  %78 = icmp eq ptr %75, null
  br i1 %78, label %79, label %80

79:                                               ; preds = %74
  br label %135

80:                                               ; preds = %74
  %81 = load ptr, ptr %13, align 8, !tbaa !38
  %82 = load ptr, ptr %18, align 8, !tbaa !65
  %83 = getelementptr inbounds nuw %struct.ocsp_revoked_info_st, ptr %82, i32 0, i32 0
  %84 = call ptr @ASN1_TIME_to_generalizedtime(ptr noundef %81, ptr noundef %83)
  %85 = icmp ne ptr %84, null
  br i1 %85, label %87, label %86

86:                                               ; preds = %80
  br label %135

87:                                               ; preds = %80
  %88 = load i32, ptr %12, align 4, !tbaa !17
  %89 = icmp ne i32 %88, -1
  br i1 %89, label %90, label %106

90:                                               ; preds = %87
  %91 = call ptr @ASN1_ENUMERATED_new()
  %92 = load ptr, ptr %18, align 8, !tbaa !65
  %93 = getelementptr inbounds nuw %struct.ocsp_revoked_info_st, ptr %92, i32 0, i32 1
  store ptr %91, ptr %93, align 8, !tbaa !68
  %94 = icmp eq ptr %91, null
  br i1 %94, label %95, label %96

95:                                               ; preds = %90
  br label %135

96:                                               ; preds = %90
  %97 = load ptr, ptr %18, align 8, !tbaa !65
  %98 = getelementptr inbounds nuw %struct.ocsp_revoked_info_st, ptr %97, i32 0, i32 1
  %99 = load ptr, ptr %98, align 8, !tbaa !68
  %100 = load i32, ptr %12, align 4, !tbaa !17
  %101 = sext i32 %100 to i64
  %102 = call i32 @ASN1_ENUMERATED_set(ptr noundef %99, i64 noundef %101)
  %103 = icmp ne i32 %102, 0
  br i1 %103, label %105, label %104

104:                                              ; preds = %96
  br label %135

105:                                              ; preds = %96
  br label %106

106:                                              ; preds = %105, %87
  br label %122

107:                                              ; preds = %63
  %108 = call ptr @ASN1_NULL_new()
  %109 = load ptr, ptr %17, align 8, !tbaa !62
  %110 = getelementptr inbounds nuw %struct.ocsp_cert_status_st, ptr %109, i32 0, i32 1
  store ptr %108, ptr %110, align 8, !tbaa !67
  %111 = icmp eq ptr %108, null
  br i1 %111, label %112, label %113

112:                                              ; preds = %107
  br label %135

113:                                              ; preds = %107
  br label %122

114:                                              ; preds = %63
  %115 = call ptr @ASN1_NULL_new()
  %116 = load ptr, ptr %17, align 8, !tbaa !62
  %117 = getelementptr inbounds nuw %struct.ocsp_cert_status_st, ptr %116, i32 0, i32 1
  store ptr %115, ptr %117, align 8, !tbaa !67
  %118 = icmp eq ptr %115, null
  br i1 %118, label %119, label %120

119:                                              ; preds = %114
  br label %135

120:                                              ; preds = %114
  br label %122

121:                                              ; preds = %63
  br label %135

122:                                              ; preds = %120, %113, %106
  %123 = load ptr, ptr %9, align 8, !tbaa !40
  %124 = getelementptr inbounds nuw %struct.ocsp_basic_response_st, ptr %123, i32 0, i32 0
  %125 = getelementptr inbounds nuw %struct.ocsp_response_data_st, ptr %124, i32 0, i32 3
  %126 = load ptr, ptr %125, align 8, !tbaa !52
  %127 = call ptr @ossl_check_OCSP_SINGLERESP_sk_type(ptr noundef %126)
  %128 = load ptr, ptr %16, align 8, !tbaa !50
  %129 = call ptr @ossl_check_OCSP_SINGLERESP_type(ptr noundef %128)
  %130 = call i32 @OPENSSL_sk_push(ptr noundef %127, ptr noundef %129)
  %131 = icmp ne i32 %130, 0
  br i1 %131, label %133, label %132

132:                                              ; preds = %122
  br label %135

133:                                              ; preds = %122
  %134 = load ptr, ptr %16, align 8, !tbaa !50
  store ptr %134, ptr %8, align 8
  store i32 1, ptr %19, align 4
  br label %137

135:                                              ; preds = %132, %121, %119, %112, %104, %95, %86, %79, %73, %62, %52, %42, %35, %31
  %136 = load ptr, ptr %16, align 8, !tbaa !50
  call void @OCSP_SINGLERESP_free(ptr noundef %136)
  store ptr null, ptr %8, align 8
  store i32 1, ptr %19, align 4
  br label %137

137:                                              ; preds = %135, %133
  call void @llvm.lifetime.end.p0(i64 8, ptr %18) #5
  call void @llvm.lifetime.end.p0(i64 8, ptr %17) #5
  call void @llvm.lifetime.end.p0(i64 8, ptr %16) #5
  %138 = load ptr, ptr %8, align 8
  ret ptr %138
}