; Function Attrs: nounwind uwtable
define ptr @OCSP_basic_add1_status(ptr noundef captures(none) %0, ptr noundef %1, i32 noundef %2, i32 noundef %3, ptr noundef %4, ptr noundef %5, ptr noundef %6) local_unnamed_addr #0 {
  %8 = getelementptr inbounds nuw i8, ptr %0, i64 32
  %9 = load ptr, ptr %8, align 8, !tbaa !35
  %10 = icmp eq ptr %9, null
  br i1 %10, label %11, label %14

11:                                               ; preds = %7
  %12 = tail call ptr @OPENSSL_sk_new_null() #6
  store ptr %12, ptr %8, align 8, !tbaa !35
  %13 = icmp eq ptr %12, null
  br i1 %13, label %58, label %14

14:                                               ; preds = %11, %7
  %15 = tail call ptr @OCSP_SINGLERESP_new() #6
  %16 = icmp eq ptr %15, null
  br i1 %16, label %58, label %17

17:                                               ; preds = %14
  %18 = getelementptr inbounds nuw i8, ptr %15, i64 16
  %19 = tail call ptr @ASN1_TIME_to_generalizedtime(ptr noundef %5, ptr noundef nonnull %18) #6
  %.not = icmp eq ptr %19, null
  br i1 %.not, label %58, label %20

20:                                               ; preds = %17
  %.not34 = icmp eq ptr %6, null
  br i1 %.not34, label %24, label %21

21:                                               ; preds = %20
  %22 = getelementptr inbounds nuw i8, ptr %15, i64 24
  %23 = tail call ptr @ASN1_TIME_to_generalizedtime(ptr noundef nonnull %6, ptr noundef nonnull %22) #6
  %.not35 = icmp eq ptr %23, null
  br i1 %.not35, label %58, label %24

24:                                               ; preds = %21, %20
  %25 = load ptr, ptr %15, align 8, !tbaa !41
  tail call void @OCSP_CERTID_free(ptr noundef %25) #6
  %26 = tail call ptr @OCSP_CERTID_dup(ptr noundef %1) #6
  store ptr %26, ptr %15, align 8, !tbaa !41
  %27 = icmp eq ptr %26, null
  br i1 %27, label %58, label %28

28:                                               ; preds = %24
  %29 = getelementptr inbounds nuw i8, ptr %15, i64 8
  %30 = load ptr, ptr %29, align 8, !tbaa !44
  store i32 %2, ptr %30, align 8, !tbaa !45
  switch i32 %2, label %58 [
    i32 1, label %31
    i32 0, label %47
    i32 2, label %51
  ]

31:                                               ; preds = %28
  %.not36 = icmp eq ptr %4, null
  br i1 %.not36, label %32, label %33

32:                                               ; preds = %31
  tail call void @ERR_new() #6
  tail call void @ERR_set_debug(ptr noundef nonnull @.str, i32 noundef 119, ptr noundef nonnull @__func__.OCSP_basic_add1_status) #6
  tail call void (i32, i32, ptr, ...) @ERR_set_error(i32 noundef 39, i32 noundef 109, ptr noundef null) #6
  br label %58

33:                                               ; preds = %31
  %34 = tail call ptr @OCSP_REVOKEDINFO_new() #6
  %35 = getelementptr inbounds nuw i8, ptr %30, i64 8
  store ptr %34, ptr %35, align 8, !tbaa !47
  %36 = icmp eq ptr %34, null
  br i1 %36, label %58, label %37

37:                                               ; preds = %33
  %38 = tail call ptr @ASN1_TIME_to_generalizedtime(ptr noundef nonnull %4, ptr noundef nonnull %34) #6
  %.not37 = icmp eq ptr %38, null
  br i1 %.not37, label %58, label %39

39:                                               ; preds = %37
  %.not38 = icmp eq i32 %3, -1
  br i1 %.not38, label %55, label %40

40:                                               ; preds = %39
  %41 = tail call ptr @ASN1_ENUMERATED_new() #6
  %42 = getelementptr inbounds nuw i8, ptr %34, i64 8
  store ptr %41, ptr %42, align 8, !tbaa !48
  %43 = icmp eq ptr %41, null
  br i1 %43, label %58, label %44

44:                                               ; preds = %40
  %45 = sext i32 %3 to i64
  %46 = tail call i32 @ASN1_ENUMERATED_set(ptr noundef nonnull %41, i64 noundef %45) #6
  %.not39 = icmp eq i32 %46, 0
  br i1 %.not39, label %58, label %55

47:                                               ; preds = %28
  %48 = tail call ptr @ASN1_NULL_new() #6
  %49 = getelementptr inbounds nuw i8, ptr %30, i64 8
  store ptr %48, ptr %49, align 8, !tbaa !47
  %50 = icmp eq ptr %48, null
  br i1 %50, label %58, label %55

51:                                               ; preds = %28
  %52 = tail call ptr @ASN1_NULL_new() #6
  %53 = getelementptr inbounds nuw i8, ptr %30, i64 8
  store ptr %52, ptr %53, align 8, !tbaa !47
  %54 = icmp eq ptr %52, null
  br i1 %54, label %58, label %55

55:                                               ; preds = %51, %47, %39, %44
  %56 = load ptr, ptr %8, align 8, !tbaa !35
  %57 = tail call i32 @OPENSSL_sk_push(ptr noundef %56, ptr noundef nonnull %15) #6
  %.not40 = icmp eq i32 %57, 0
  br i1 %.not40, label %58, label %59

58:                                               ; preds = %55, %28, %51, %47, %44, %40, %37, %33, %24, %21, %17, %14, %11, %32
  %.027 = phi ptr [ null, %11 ], [ null, %14 ], [ %15, %24 ], [ %15, %28 ], [ %15, %51 ], [ %15, %55 ], [ %15, %47 ], [ %15, %33 ], [ %15, %40 ], [ %15, %44 ], [ %15, %37 ], [ %15, %32 ], [ %15, %21 ], [ %15, %17 ]
  tail call void @OCSP_SINGLERESP_free(ptr noundef %.027) #6
  br label %59

59:                                               ; preds = %55, %58
  %.0 = phi ptr [ null, %58 ], [ %15, %55 ]
  ret ptr %.0
}